target datalayout = "e-m:e-p270:32:32-p271:32:32-p272:64:64-i64:64-i128:128-f80:128-n8:16:32:64-S128"
target triple = "x86_64-pc-linux-gnu"

%struct.XSetWindowAttributes = type { i64, i64, i64, i64, i32, i32, i32, i64, i64, i32, i64, i64, i32, i64, i64 }
%struct.SDL_VideoDevice = type { ptr, ptr, ptr, ptr, ptr, ptr, ptr, ptr, ptr, ptr, ptr, ptr, ptr, ptr, ptr, ptr, ptr, ptr, ptr, ptr, ptr, ptr, ptr, ptr, ptr, ptr, ptr, ptr, ptr, ptr, ptr, ptr, ptr, ptr, ptr, ptr, ptr, ptr, ptr, ptr, ptr, ptr, ptr, ptr, ptr, ptr, ptr, ptr, ptr, ptr, ptr, ptr, ptr, ptr, ptr, ptr, ptr, ptr, ptr, ptr, ptr, ptr, ptr, ptr, ptr, ptr, ptr, ptr, ptr, ptr, ptr, ptr, ptr, ptr, ptr, ptr, ptr, ptr, ptr, ptr, ptr, ptr, ptr, ptr, ptr, ptr, ptr, ptr, ptr, ptr, ptr, ptr, ptr, ptr, ptr, ptr, ptr, i64, i8, i8, i8, ptr, i32, ptr, %struct.SDL_Rect, ptr, ptr, i32, ptr, ptr, ptr, ptr, i64, ptr, i8, i32, i32, %struct.anon, ptr, ptr, ptr, ptr, ptr, ptr, %struct.SDL_AtomicInt, %struct.SDL_AtomicInt, i8, %struct.anon.0, ptr, ptr, ptr, ptr, ptr }
%struct.SDL_Rect = type { i32, i32, i32, i32 }
%struct.anon = type { i32, i32, i32, i32, i32, i32, i32, i32, i32, i32, i32, i32, i32, i32, i32, i32, i32, i32, i32, i32, i32, i32, i32, i32, i32, i32, i32, i32, i32, [256 x i8], ptr }
%struct.SDL_AtomicInt = type { i32 }
%struct.anon.0 = type { ptr, ptr, i32, [256 x i8], ptr }
%struct.SDL_VideoData = type { ptr, ptr, i32, ptr, i64, i32, ptr, i32, i64, i64, %struct.X11_ClipboardData, %struct.X11_ClipboardData, ptr, i64, %struct.X11_SettingsData, i8, %struct.anon.1, [256 x i32], i8, i8, i8, i64, i8, %struct.SDL_Point, i32, ptr, i32, i8, i32, %struct.anon.2, i8, i64, ptr, ptr, i8, i8, i8 }
%struct.X11_ClipboardData = type { ptr, ptr, ptr, i64, i32 }
%struct.X11_SettingsData = type { ptr }
%struct.anon.1 = type { i64, i64, i64, i64, i64, i64, i64, i64, i64, i64, i64, i64, i64, i64, i64, i64, i64, i64, i64, i64, i64, i64, i64, i64, i64, i64, i64, i64, i64, i64, i64, i64, i64, i64, i64, i64, i64, i64, i64, i64, i64, i64, i64, i64, i64, i64, i64, i64, i64, i64, i64, i64, i64 }
%struct.SDL_Point = type { i32, i32 }
%struct.anon.2 = type { ptr, i32, i32, i32, i16, i32, i32 }
%struct.anon.4 = type { ptr, ptr, i32, i32, i32, i32, ptr, i64, i64, i64, i32, ptr, i32, i32, i32, i32, i32, ptr, i32, i32, ptr, ptr, i32, i64, i64, ptr, ptr, ptr, ptr, i32, ptr, ptr, ptr, i32, i32, ptr, i64, i64, i32, i32, ptr, ptr, i32, ptr }
%struct.Screen = type { ptr, ptr, i64, i32, i32, i32, i32, i32, ptr, i32, ptr, ptr, i64, i64, i64, i32, i32, i32, i32, i64 }

@X11_XCreateWindow = external global ptr, align 8
@X11_XSelectInput = external global ptr, align 8
@X11_XFlush = external global ptr, align 8

; Function Attrs: nounwind uwtable
define hidden i64 @GetWindow(ptr noundef %0) #0 {
  %2 = alloca ptr, align 8
  %3 = alloca ptr, align 8
  %4 = alloca ptr, align 8
  %5 = alloca i64, align 8
  %6 = alloca %struct.XSetWindowAttributes, align 8
  store ptr %0, ptr %2, align 8
  call void @llvm.lifetime.start.p0(i64 8, ptr %3) #6
  %7 = load ptr, ptr %2, align 8
  %8 = getelementptr inbounds nuw %struct.SDL_VideoDevice, ptr %7, i32 0, i32 128
  %9 = load ptr, ptr %8, align 8
  store ptr %9, ptr %3, align 8
  %10 = load ptr, ptr %3, align 8
  %11 = getelementptr inbounds nuw %struct.SDL_VideoData, ptr %10, i32 0, i32 9
  %12 = load i64, ptr %11, align 8
  %13 = icmp eq i64 %12, 0
  br i1 %13, label %14, label %45

14:                                               ; preds = %1
  call void @llvm.lifetime.start.p0(i64 8, ptr %4) #6
  %15 = load ptr, ptr %3, align 8
  %16 = getelementptr inbounds nuw %struct.SDL_VideoData, ptr %15, i32 0, i32 0
  %17 = load ptr, ptr %16, align 8
  store ptr %17, ptr %4, align 8
  call void @llvm.lifetime.start.p0(i64 8, ptr %5) #6
  %18 = load ptr, ptr %4, align 8
  %19 = getelementptr inbounds nuw %struct.anon.4, ptr %18, i32 0, i32 35
  %20 = load ptr, ptr %19, align 8
  %21 = load ptr, ptr %4, align 8
  %22 = getelementptr inbounds nuw %struct.anon.4, ptr %21, i32 0, i32 33
  %23 = load i32, ptr %22, align 8
  %24 = sext i32 %23 to i64
  %25 = getelementptr inbounds %struct.Screen, ptr %20, i64 %24
  %26 = getelementptr inbounds nuw %struct.Screen, ptr %25, i32 0, i32 2
  %27 = load i64, ptr %26, align 8
  store i64 %27, ptr %5, align 8
  call void @llvm.lifetime.start.p0(i64 112, ptr %6) #6
  %28 = load ptr, ptr @X11_XCreateWindow, align 8
  %29 = load ptr, ptr %4, align 8
  %30 = load i64, ptr %5, align 8
  %31 = call i64 %28(ptr noundef %29, i64 noundef %30, i32 noundef -10, i32 noundef -10, i32 noundef 1, i32 noundef 1, i32 noundef 0, i32 noundef 0, i32 noundef 2, ptr noundef null, i64 noundef 0, ptr noundef %6)
  %32 = load ptr, ptr %3, align 8
  %33 = getelementptr inbounds nuw %struct.SDL_VideoData, ptr %32, i32 0, i32 9
  store i64 %31, ptr %33, align 8
  %34 = load ptr, ptr @X11_XSelectInput, align 8
  %35 = load ptr, ptr %4, align 8
  %36 = load ptr, ptr %3, align 8
  %37 = getelementptr inbounds nuw %struct.SDL_VideoData, ptr %36, i32 0, i32 9
  %38 = load i64, ptr %37, align 8
  %39 = call i32 %34(ptr noundef %35, i64 noundef %38, i64 noundef 4194304)
  %40 = load ptr, ptr @X11_XFlush, align 8
  %41 = load ptr, ptr %3, align 8
  %42 = getelementptr inbounds nuw %struct.SDL_VideoData, ptr %41, i32 0, i32 0
  %43 = load ptr, ptr %42, align 8
  %44 = call i32 %40(ptr noundef %43)
  call void @llvm.lifetime.end.p0(i64 112, ptr %6) #6
  call void @llvm.lifetime.end.p0(i64 8, ptr %5) #6
  call void @llvm.lifetime.end.p0(i64 8, ptr %4) #6
  br label %45

45:                                               ; preds = %14, %1
  %46 = load ptr, ptr %3, align 8
  %47 = getelementptr inbounds nuw %struct.SDL_VideoData, ptr %46, i32 0, i32 9
  %48 = load i64, ptr %47, align 8
  call void @llvm.lifetime.end.p0(i64 8, ptr %3) #6
  ret i64 %48
}