; Function Attrs: nounwind uwtable
define hidden i64 @GetWindow(ptr noundef readonly captures(none) %0) local_unnamed_addr #0 {
  %2 = alloca %struct.XSetWindowAttributes, align 8
  %3 = getelementptr inbounds nuw i8, ptr %0, i64 1656
  %4 = load ptr, ptr %3, align 8
  %5 = getelementptr inbounds nuw i8, ptr %4, i64 72
  %6 = load i64, ptr %5, align 8
  %7 = icmp eq i64 %6, 0
  br i1 %7, label %8, label %24

8:                                                ; preds = %1
  %9 = load ptr, ptr %4, align 8
  %10 = getelementptr inbounds nuw i8, ptr %9, i64 232
  %11 = load ptr, ptr %10, align 8
  %12 = getelementptr inbounds nuw i8, ptr %9, i64 224
  %13 = load i32, ptr %12, align 8
  %14 = sext i32 %13 to i64
  %15 = getelementptr inbounds %struct.Screen, ptr %11, i64 %14, i32 2
  %16 = load i64, ptr %15, align 8
  call void @llvm.lifetime.start.p0(i64 112, ptr nonnull %2) #6
  %17 = load ptr, ptr @X11_XCreateWindow, align 8
  %18 = call i64 %17(ptr noundef %9, i64 noundef %16, i32 noundef -10, i32 noundef -10, i32 noundef 1, i32 noundef 1, i32 noundef 0, i32 noundef 0, i32 noundef 2, ptr noundef null, i64 noundef 0, ptr noundef nonnull %2) #6
  store i64 %18, ptr %5, align 8
  %19 = load ptr, ptr @X11_XSelectInput, align 8
  %20 = call i32 %19(ptr noundef %9, i64 noundef %18, i64 noundef 4194304) #6
  %21 = load ptr, ptr @X11_XFlush, align 8
  %22 = load ptr, ptr %4, align 8
  %23 = call i32 %21(ptr noundef %22) #6
  call void @llvm.lifetime.end.p0(i64 112, ptr nonnull %2) #6
  %.pre = load i64, ptr %5, align 8
  br label %24

24:                                               ; preds = %8, %1
  %25 = phi i64 [ %.pre, %8 ], [ %6, %1 ]
  ret i64 %25
}